; Function Attrs: nounwind uwtable
define i32 @test_vprintf_stdout(ptr noundef %0, ptr noundef %1) local_unnamed_addr #0 {
  %3 = load ptr, ptr @io_lock, align 8, !tbaa !13
  %4 = tail call i32 @CRYPTO_THREAD_write_lock(ptr noundef %3) #3
  %5 = icmp sgt i32 %4, 0
  br i1 %5, label %test_io_lock.exit, label %6

6:                                                ; preds = %2
  tail call void @OPENSSL_die(ptr noundef nonnull @.str.6, ptr noundef nonnull @.str.2, i32 noundef 191) #4
  unreachable

test_io_lock.exit:                                ; preds = %2
  %7 = tail call ptr @CRYPTO_THREAD_get_local(ptr noundef nonnull @local_test_data) #3
  %.not.i.i = icmp eq ptr %7, null
  br i1 %.not.i.i, label %8, label %get_local_test_data.exit.i

8:                                                ; preds = %test_io_lock.exit
  %9 = tail call noalias ptr @CRYPTO_zalloc(i64 noundef 16, ptr noundef nonnull @.str.2, i32 noundef 61) #3
  %10 = icmp eq ptr %9, null
  br i1 %10, label %get_local_test_data.exit.thread.i, label %11

11:                                               ; preds = %8
  %12 = tail call i32 @CRYPTO_THREAD_set_local(ptr noundef nonnull @local_test_data, ptr noundef nonnull %9) #3
  %.not8.i.i = icmp eq i32 %12, 0
  br i1 %.not8.i.i, label %13, label %get_local_test_data.exit.i

13:                                               ; preds = %11
  tail call void @CRYPTO_free(ptr noundef nonnull %9, ptr noundef nonnull @.str.2, i32 noundef 65) #3
  br label %get_local_test_data.exit.thread.i

get_local_test_data.exit.i:                       ; preds = %11, %test_io_lock.exit
  %.0.i.i = phi ptr [ %7, %test_io_lock.exit ], [ %9, %11 ]
  %14 = load ptr, ptr %.0.i.i, align 8, !tbaa !3
  %.not6.i = icmp eq ptr %14, null
  br i1 %.not6.i, label %get_local_test_data.exit.thread.i, label %get_bio_out.exit

get_local_test_data.exit.thread.i:                ; preds = %get_local_test_data.exit.i, %13, %8
  %15 = load ptr, ptr @bio_out, align 8, !tbaa !12
  br label %get_bio_out.exit

get_bio_out.exit:                                 ; preds = %get_local_test_data.exit.i, %get_local_test_data.exit.thread.i
  %.0.i = phi ptr [ %15, %get_local_test_data.exit.thread.i ], [ %14, %get_local_test_data.exit.i ]
  %16 = tail call i32 @BIO_vprintf(ptr noundef %.0.i, ptr noundef %0, ptr noundef %1) #3
  %17 = load ptr, ptr @io_lock, align 8, !tbaa !13
  %18 = tail call i32 @CRYPTO_THREAD_unlock(ptr noundef %17) #3
  ret i32 %16
}